target datalayout = "e-m:e-p270:32:32-p271:32:32-p272:64:64-i64:64-i128:128-f80:128-n8:16:32:64-S128"
target triple = "x86_64-pc-linux-gnu"

%struct._zval_struct = type { %union._zend_value, %union.anon.3, %union.anon.6 }
%union._zend_value = type { i64 }
%union.anon.3 = type { i32 }
%union.anon.6 = type { i32 }
%struct._zend_array = type { %struct._zend_refcounted_h, %union.anon.0, i32, %union.anon.1, i32, i32, i32, i32, i64, ptr }
%struct._zend_refcounted_h = type { i32, %union.anon }
%union.anon = type { i32 }
%union.anon.0 = type { i32 }
%union.anon.1 = type { ptr }
%struct._php_core_globals = type { i64, i8, i8, i8, i8, i8, i8, i8, i8, ptr, ptr, i64, i64, i64, ptr, ptr, ptr, ptr, ptr, i8, ptr, ptr, ptr, ptr, i64, ptr, ptr, ptr, ptr, ptr, ptr, ptr, %struct._arg_separators, ptr, %struct._zend_array, i16, i8, i8, %struct._zend_llist, [6 x %struct._zval_struct], i8, i8, i8, i8, i8, ptr, ptr, i64, [8 x i8], i8, i8, i8, i8, i8, i8, i32, i32, ptr, ptr, ptr, ptr, i64, i64, ptr, i64, ptr, ptr, i8, i8, i8, i8, i8, i8, i64, ptr, i64, i64 }
%struct._arg_separators = type { ptr, ptr }
%struct._zend_llist = type { ptr, ptr, i64, i64, ptr, i8, ptr }
%struct._zend_execute_data = type { ptr, ptr, ptr, ptr, %struct._zval_struct, ptr, ptr, ptr, ptr }

@core_globals = external global %struct._php_core_globals, align 8

; Function Attrs: nounwind uwtable
define hidden void @zif_error_clear_last(ptr noundef %0, ptr noundef %1) #0 {
  %3 = alloca ptr, align 8
  %4 = alloca ptr, align 8
  %5 = alloca i32, align 4
  %6 = alloca i32, align 4
  %7 = alloca i32, align 4
  %8 = alloca i32, align 4
  %9 = alloca ptr, align 8
  %10 = alloca ptr, align 8
  %11 = alloca ptr, align 8
  %12 = alloca ptr, align 8
  store ptr %0, ptr %11, align 8
  store ptr %1, ptr %12, align 8
  br label %13

13:                                               ; preds = %2
  %14 = load ptr, ptr %11, align 8
  %15 = getelementptr inbounds %struct._zend_execute_data, ptr %14, i32 0, i32 4
  %16 = getelementptr inbounds %struct._zval_struct, ptr %15, i32 0, i32 2
  %17 = load i32, ptr %16, align 4
  %18 = icmp ne i32 %17, 0
  %19 = xor i1 %18, true
  %20 = xor i1 %19, true
  %21 = zext i1 %20 to i32
  %22 = sext i32 %21 to i64
  %23 = icmp ne i64 %22, 0
  br i1 %23, label %24, label %25

24:                                               ; preds = %13
  call void @zend_wrong_parameters_none_error()
  br label %98

25:                                               ; preds = %13
  br label %26

26:                                               ; preds = %25
  %27 = load ptr, ptr getelementptr inbounds (%struct._php_core_globals, ptr @core_globals, i32 0, i32 57), align 8
  %28 = icmp ne ptr %27, null
  br i1 %28, label %29, label %98

29:                                               ; preds = %26
  store i32 0, ptr getelementptr inbounds (%struct._php_core_globals, ptr @core_globals, i32 0, i32 55), align 8
  store i32 0, ptr getelementptr inbounds (%struct._php_core_globals, ptr @core_globals, i32 0, i32 56), align 4
  %30 = load ptr, ptr getelementptr inbounds (%struct._php_core_globals, ptr @core_globals, i32 0, i32 57), align 8
  store ptr %30, ptr %9, align 8
  %31 = load ptr, ptr %9, align 8
  %32 = getelementptr inbounds %struct._zend_refcounted_h, ptr %31, i32 0, i32 1
  %33 = load i32, ptr %32, align 4
  store i32 %33, ptr %7, align 4
  %34 = load i32, ptr %7, align 4
  %35 = and i32 %34, 1008
  %36 = and i32 %35, 64
  %37 = icmp ne i32 %36, 0
  br i1 %37, label %61, label %38

38:                                               ; preds = %29
  %39 = load ptr, ptr %9, align 8
  store ptr %39, ptr %4, align 8
  %40 = load ptr, ptr %4, align 8
  %41 = load i32, ptr %40, align 4
  %42 = icmp ugt i32 %41, 0
  call void @llvm.assume(i1 %42)
  %43 = load ptr, ptr %4, align 8
  %44 = load i32, ptr %43, align 4
  %45 = add i32 %44, -1
  store i32 %45, ptr %43, align 4
  %46 = icmp eq i32 %45, 0
  br i1 %46, label %47, label %60

47:                                               ; preds = %38
  %48 = load ptr, ptr %9, align 8
  %49 = getelementptr inbounds %struct._zend_refcounted_h, ptr %48, i32 0, i32 1
  %50 = load i32, ptr %49, align 4
  store i32 %50, ptr %8, align 4
  %51 = load i32, ptr %8, align 4
  %52 = and i32 %51, 1008
  %53 = and i32 %52, 128
  %54 = icmp ne i32 %53, 0
  br i1 %54, label %55, label %57

55:                                               ; preds = %47
  %56 = load ptr, ptr %9, align 8
  call void @free(ptr noundef %56) #12
  br label %59

57:                                               ; preds = %47
  %58 = load ptr, ptr %9, align 8
  call void @_efree(ptr noundef %58) #12
  br label %59

59:                                               ; preds = %57, %55
  br label %60

60:                                               ; preds = %59, %38
  br label %61

61:                                               ; preds = %60, %29
  store ptr null, ptr getelementptr inbounds (%struct._php_core_globals, ptr @core_globals, i32 0, i32 57), align 8
  %62 = load ptr, ptr getelementptr inbounds (%struct._php_core_globals, ptr @core_globals, i32 0, i32 58), align 8
  %63 = icmp ne ptr %62, null
  br i1 %63, label %64, label %97

64:                                               ; preds = %61
  %65 = load ptr, ptr getelementptr inbounds (%struct._php_core_globals, ptr @core_globals, i32 0, i32 58), align 8
  store ptr %65, ptr %10, align 8
  %66 = load ptr, ptr %10, align 8
  %67 = getelementptr inbounds %struct._zend_refcounted_h, ptr %66, i32 0, i32 1
  %68 = load i32, ptr %67, align 4
  store i32 %68, ptr %5, align 4
  %69 = load i32, ptr %5, align 4
  %70 = and i32 %69, 1008
  %71 = and i32 %70, 64
  %72 = icmp ne i32 %71, 0
  br i1 %72, label %96, label %73

73:                                               ; preds = %64
  %74 = load ptr, ptr %10, align 8
  store ptr %74, ptr %3, align 8
  %75 = load ptr, ptr %3, align 8
  %76 = load i32, ptr %75, align 4
  %77 = icmp ugt i32 %76, 0
  call void @llvm.assume(i1 %77)
  %78 = load ptr, ptr %3, align 8
  %79 = load i32, ptr %78, align 4
  %80 = add i32 %79, -1
  store i32 %80, ptr %78, align 4
  %81 = icmp eq i32 %80, 0
  br i1 %81, label %82, label %95

82:                                               ; preds = %73
  %83 = load ptr, ptr %10, align 8
  %84 = getelementptr inbounds %struct._zend_refcounted_h, ptr %83, i32 0, i32 1
  %85 = load i32, ptr %84, align 4
  store i32 %85, ptr %6, align 4
  %86 = load i32, ptr %6, align 4
  %87 = and i32 %86, 1008
  %88 = and i32 %87, 128
  %89 = icmp ne i32 %88, 0
  br i1 %89, label %90, label %92

90:                                               ; preds = %82
  %91 = load ptr, ptr %10, align 8
  call void @free(ptr noundef %91) #12
  br label %94

92:                                               ; preds = %82
  %93 = load ptr, ptr %10, align 8
  call void @_efree(ptr noundef %93) #12
  br label %94

94:                                               ; preds = %92, %90
  br label %95

95:                                               ; preds = %94, %73
  br label %96

96:                                               ; preds = %95, %64
  store ptr null, ptr getelementptr inbounds (%struct._php_core_globals, ptr @core_globals, i32 0, i32 58), align 8
  br label %97

97:                                               ; preds = %96, %61
  br label %98

98:                                               ; preds = %97, %26, %24
  ret void
}