; Function Attrs: nounwind uwtable
define hidden void @zif_error_clear_last(ptr nocapture noundef readonly %0, ptr nocapture readnone %1) #0 {
  %3 = getelementptr inbounds i8, ptr %0, i64 44
  %4 = load i32, ptr %3, align 4
  %.not = icmp eq i32 %4, 0
  br i1 %.not, label %6, label %5

5:                                                ; preds = %2
  tail call void @zend_wrong_parameters_none_error() #18
  br label %37

6:                                                ; preds = %2
  %7 = load ptr, ptr getelementptr inbounds (%struct._php_core_globals, ptr @core_globals, i64 0, i32 57), align 8
  %.not18 = icmp eq ptr %7, null
  br i1 %.not18, label %37, label %8

8:                                                ; preds = %6
  store i32 0, ptr getelementptr inbounds (%struct._php_core_globals, ptr @core_globals, i64 0, i32 55), align 8
  store i32 0, ptr getelementptr inbounds (%struct._php_core_globals, ptr @core_globals, i64 0, i32 56), align 4
  %9 = getelementptr inbounds i8, ptr %7, i64 4
  %10 = load i32, ptr %9, align 4
  %11 = and i32 %10, 64
  %.not19 = icmp eq i32 %11, 0
  br i1 %.not19, label %12, label %21

12:                                               ; preds = %8
  %13 = load i32, ptr %7, align 4
  %14 = icmp ne i32 %13, 0
  tail call void @llvm.assume(i1 %14)
  %15 = add i32 %13, -1
  store i32 %15, ptr %7, align 4
  %16 = icmp eq i32 %15, 0
  br i1 %16, label %17, label %21

17:                                               ; preds = %12
  %18 = and i32 %10, 128
  %.not20 = icmp eq i32 %18, 0
  br i1 %.not20, label %20, label %19

19:                                               ; preds = %17
  tail call void @free(ptr noundef nonnull %7) #18
  br label %21

20:                                               ; preds = %17
  tail call void @_efree(ptr noundef nonnull %7) #18
  br label %21

21:                                               ; preds = %12, %20, %19, %8
  store ptr null, ptr getelementptr inbounds (%struct._php_core_globals, ptr @core_globals, i64 0, i32 57), align 8
  %22 = load ptr, ptr getelementptr inbounds (%struct._php_core_globals, ptr @core_globals, i64 0, i32 58), align 8
  %.not21 = icmp eq ptr %22, null
  br i1 %.not21, label %37, label %23

23:                                               ; preds = %21
  %24 = getelementptr inbounds i8, ptr %22, i64 4
  %25 = load i32, ptr %24, align 4
  %26 = and i32 %25, 64
  %.not22 = icmp eq i32 %26, 0
  br i1 %.not22, label %27, label %36

27:                                               ; preds = %23
  %28 = load i32, ptr %22, align 4
  %29 = icmp ne i32 %28, 0
  tail call void @llvm.assume(i1 %29)
  %30 = add i32 %28, -1
  store i32 %30, ptr %22, align 4
  %31 = icmp eq i32 %30, 0
  br i1 %31, label %32, label %36

32:                                               ; preds = %27
  %33 = and i32 %25, 128
  %.not23 = icmp eq i32 %33, 0
  br i1 %.not23, label %35, label %34

34:                                               ; preds = %32
  tail call void @free(ptr noundef nonnull %22) #18
  br label %36

35:                                               ; preds = %32
  tail call void @_efree(ptr noundef nonnull %22) #18
  br label %36

36:                                               ; preds = %27, %35, %34, %23
  store ptr null, ptr getelementptr inbounds (%struct._php_core_globals, ptr @core_globals, i64 0, i32 58), align 8
  br label %37

37:                                               ; preds = %21, %36, %6, %5
  ret void
}